target datalayout = "e-m:e-p270:32:32-p271:32:32-p272:64:64-i64:64-i128:128-f80:128-n8:16:32:64-S128"
target triple = "x86_64-unknown-linux-gnu"

%"struct.std::array.2" = type { [256 x i8] }
%"class.facebook::velox::encoding::Base64Exception" = type { %"class.std::exception", ptr }
%"class.std::exception" = type { ptr }

@.str = private unnamed_addr constant [60 x i8] c"Base64::decode() - invalid input string: invalid characters\00", align 1
@_ZTIN8facebook5velox8encoding15Base64ExceptionE = linkonce_odr constant { ptr, ptr, ptr } { ptr getelementptr inbounds (ptr, ptr @_ZTVN10__cxxabiv120__si_class_type_infoE, i64 2), ptr @_ZTSN8facebook5velox8encoding15Base64ExceptionE, ptr @_ZTISt9exception }, comdat, align 8
@_ZTVSt9exception = external unnamed_addr constant { [5 x ptr] }, align 8

; Function Attrs: mustprogress nounwind uwtable
define linkonce_odr void @_ZNSt9exceptionC2Ev(ptr noundef nonnull align 8 dereferenceable(8) %this) unnamed_addr #0 comdat align 2 {
entry:
  %this.addr = alloca ptr, align 8
  store ptr %this, ptr %this.addr, align 8
  %this1 = load ptr, ptr %this.addr, align 8
  store ptr getelementptr inbounds ({ [5 x ptr] }, ptr @_ZTVSt9exception, i32 0, i32 0, i32 2), ptr %this1, align 8
  ret void
}

; Function Attrs: mustprogress nounwind uwtable
define linkonce_odr noundef nonnull align 1 dereferenceable(1) ptr @_ZNSt14__array_traitsIhLm256EE6_S_refERA256_Khm(ptr noundef nonnull align 1 dereferenceable(256) %__t, i64 noundef %__n) #0 comdat align 2 {
entry:
  %__t.addr = alloca ptr, align 8
  %__n.addr = alloca i64, align 8
  store ptr %__t, ptr %__t.addr, align 8
  store i64 %__n, ptr %__n.addr, align 8
  %0 = load ptr, ptr %__t.addr, align 8
  %1 = load i64, ptr %__n.addr, align 8
  %arrayidx = getelementptr inbounds [256 x i8], ptr %0, i64 0, i64 %1
  ret ptr %arrayidx
}

; Function Attrs: mustprogress nounwind uwtable
define linkonce_odr void @_ZN8facebook5velox8encoding15Base64ExceptionC2EPKc(ptr noundef nonnull align 8 dereferenceable(16) %this, ptr noundef %msg) unnamed_addr #0 comdat align 2 {
entry:
  %this.addr = alloca ptr, align 8
  %msg.addr = alloca ptr, align 8
  store ptr %this, ptr %this.addr, align 8
  store ptr %msg, ptr %msg.addr, align 8
  %this1 = load ptr, ptr %this.addr, align 8
  call void @_ZNSt9exceptionC2Ev(ptr noundef nonnull align 8 dereferenceable(8) %this1) #8
  store ptr getelementptr inbounds ({ [5 x ptr] }, ptr @_ZTVN8facebook5velox8encoding15Base64ExceptionE, i32 0, i32 0, i32 2), ptr %this1, align 8
  %msg_ = getelementptr inbounds %"class.facebook::velox::encoding::Base64Exception", ptr %this1, i32 0, i32 1
  %0 = load ptr, ptr %msg.addr, align 8
  store ptr %0, ptr %msg_, align 8
  ret void
}

; Function Attrs: mustprogress nounwind uwtable
define linkonce_odr noundef nonnull align 1 dereferenceable(1) ptr @_ZNKSt5arrayIhLm256EEixEm(ptr noundef nonnull align 1 dereferenceable(256) %this, i64 noundef %__n) #0 comdat align 2 {
entry:
  %this.addr = alloca ptr, align 8
  %__n.addr = alloca i64, align 8
  store ptr %this, ptr %this.addr, align 8
  store i64 %__n, ptr %__n.addr, align 8
  %this1 = load ptr, ptr %this.addr, align 8
  %_M_elems = getelementptr inbounds %"struct.std::array.2", ptr %this1, i32 0, i32 0
  %0 = load i64, ptr %__n.addr, align 8
  %call = call noundef nonnull align 1 dereferenceable(1) ptr @_ZNSt14__array_traitsIhLm256EE6_S_refERA256_Khm(ptr noundef nonnull align 1 dereferenceable(256) %_M_elems, i64 noundef %0) #8
  ret ptr %call
}

; Function Attrs: mustprogress uwtable
define noundef zeroext i8 @_ZN8facebook5velox8encoding6Base6419Base64ReverseLookupEcRKSt5arrayIhLm256EE(i8 noundef signext %p, ptr noundef nonnull align 1 dereferenceable(256) %reverse_lookup) #1 align 2 personality ptr @__gxx_personality_v0 {
entry:
  %p.addr = alloca i8, align 1
  %reverse_lookup.addr = alloca ptr, align 8
  %curr = alloca i8, align 1
  %exn.slot = alloca ptr, align 8
  %ehselector.slot = alloca i32, align 4
  store i8 %p, ptr %p.addr, align 1
  store ptr %reverse_lookup, ptr %reverse_lookup.addr, align 8
  %0 = load ptr, ptr %reverse_lookup.addr, align 8
  %1 = load i8, ptr %p.addr, align 1
  %conv = zext i8 %1 to i64
  %call = call noundef nonnull align 1 dereferenceable(1) ptr @_ZNKSt5arrayIhLm256EEixEm(ptr noundef nonnull align 1 dereferenceable(256) %0, i64 noundef %conv) #8
  %2 = load i8, ptr %call, align 1
  store i8 %2, ptr %curr, align 1
  %3 = load i8, ptr %curr, align 1
  %conv1 = zext i8 %3 to i32
  %cmp = icmp sge i32 %conv1, 64
  br i1 %cmp, label %if.then, label %if.end

if.then:                                          ; preds = %entry
  %exception = call ptr @__cxa_allocate_exception(i64 16) #8
  invoke void @_ZN8facebook5velox8encoding15Base64ExceptionC2EPKc(ptr noundef nonnull align 8 dereferenceable(16) %exception, ptr noundef @.str)
          to label %invoke.cont unwind label %lpad

invoke.cont:                                      ; preds = %if.then
  call void @__cxa_throw(ptr %exception, ptr @_ZTIN8facebook5velox8encoding15Base64ExceptionE, ptr @_ZN8facebook5velox8encoding15Base64ExceptionD2Ev) #9
  unreachable

lpad:                                             ; preds = %if.then
  %4 = landingpad { ptr, i32 }
          cleanup
  %5 = extractvalue { ptr, i32 } %4, 0
  store ptr %5, ptr %exn.slot, align 8
  %6 = extractvalue { ptr, i32 } %4, 1
  store i32 %6, ptr %ehselector.slot, align 4
  call void @__cxa_free_exception(ptr %exception) #8
  br label %eh.resume

if.end:                                           ; preds = %entry
  %7 = load i8, ptr %curr, align 1
  ret i8 %7

eh.resume:                                        ; preds = %lpad
  %exn = load ptr, ptr %exn.slot, align 8
  %sel = load i32, ptr %ehselector.slot, align 4
  %lpad.val = insertvalue { ptr, i32 } poison, ptr %exn, 0
  %lpad.val2 = insertvalue { ptr, i32 } %lpad.val, i32 %sel, 1
  resume { ptr, i32 } %lpad.val2
}