; Function Attrs: mustprogress uwtable
define noundef zeroext i8 @_ZN8facebook5velox8encoding6Base6419Base64ReverseLookupEcRKSt5arrayIhLm256EE(i8 noundef signext %p, ptr nocapture noundef nonnull readonly align 1 dereferenceable(256) %reverse_lookup) local_unnamed_addr #2 align 2 personality ptr @__gxx_personality_v0 {
entry:
  %conv = zext i8 %p to i64
  %arrayidx.i.i = getelementptr inbounds [256 x i8], ptr %reverse_lookup, i64 0, i64 %conv
  %0 = load i8, ptr %arrayidx.i.i, align 1
  %cmp = icmp ugt i8 %0, 63
  br i1 %cmp, label %if.then, label %if.end

if.then:                                          ; preds = %entry
  %exception = tail call ptr @__cxa_allocate_exception(i64 16) #10
  store ptr getelementptr inbounds ({ [5 x ptr] }, ptr @_ZTVN8facebook5velox8encoding15Base64ExceptionE, i64 0, i32 0, i64 2), ptr %exception, align 8
  %msg_.i = getelementptr inbounds i8, ptr %exception, i64 8
  store ptr @.str, ptr %msg_.i, align 8
  tail call void @__cxa_throw(ptr nonnull %exception, ptr nonnull @_ZTIN8facebook5velox8encoding15Base64ExceptionE, ptr nonnull @_ZN8facebook5velox8encoding15Base64ExceptionD2Ev) #12
  unreachable

if.end:                                           ; preds = %entry
  ret i8 %0
}